; Function Attrs: mustprogress uwtable
define i32 @SolveAllChunksBin(ptr noundef %0, ptr noundef %1, i32 noundef %2) local_unnamed_addr #3 {
  %4 = icmp slt i32 %2, 1
  br i1 %4, label %_Z15SolveAllBoardsNR6boardsR12solvedBoards.exit, label %5

5:                                                ; preds = %3
  store i32 0, ptr getelementptr inbounds nuw (i8, ptr @param, i64 24), align 8
  %6 = load i32, ptr %0, align 4
  %7 = icmp sgt i32 %6, 200
  br i1 %7, label %_Z15SolveAllBoardsNR6boardsR12solvedBoards.exit, label %8

8:                                                ; preds = %5
  store ptr %0, ptr getelementptr inbounds nuw (i8, ptr @param, i64 8), align 8
  store ptr %1, ptr getelementptr inbounds nuw (i8, ptr @param, i64 16), align 8
  store i32 %6, ptr @param, align 8
  tail call void @_ZN9Scheduler11RegisterRunE7RunModeRK6boards(ptr noundef nonnull align 8 dereferenceable(43416) @scheduler, i32 noundef 0, ptr noundef nonnull align 4 dereferenceable(21604) %0)
  %9 = tail call noundef i32 @_ZN6System11RegisterRunE7RunModeRK6boards(ptr noundef nonnull align 8 dereferenceable(200) @sysdep, i32 noundef 0, ptr noundef nonnull align 4 dereferenceable(21604) %0)
  %10 = getelementptr inbounds nuw i8, ptr %1, i64 8
  br label %11

11:                                               ; preds = %11, %8
  %indvars.iv.i = phi i64 [ 0, %8 ], [ %indvars.iv.next.i, %11 ]
  %12 = mul nuw nsw i64 %indvars.iv.i, 216
  %13 = getelementptr i8, ptr %10, i64 %12
  store i32 0, ptr %13, align 4
  %indvars.iv.next.i = add nuw nsw i64 %indvars.iv.i, 1
  %exitcond.not.i = icmp eq i64 %indvars.iv.next.i, 200
  br i1 %exitcond.not.i, label %14, label %11, !llvm.loop !7

14:                                               ; preds = %11
  %15 = tail call noundef i32 @_ZN6System10RunThreadsEv(ptr noundef nonnull align 8 dereferenceable(200) @sysdep)
  %.not.i = icmp eq i32 %15, 1
  br i1 %.not.i, label %16, label %_Z15SolveAllBoardsNR6boardsR12solvedBoards.exit

16:                                               ; preds = %14
  %17 = load i32, ptr @param, align 8
  store i32 %17, ptr %1, align 4
  %18 = load i32, ptr getelementptr inbounds nuw (i8, ptr @param, i64 24), align 8
  %..i = tail call i32 @llvm.umax.i32(i32 %18, i32 1)
  br label %_Z15SolveAllBoardsNR6boardsR12solvedBoards.exit

_Z15SolveAllBoardsNR6boardsR12solvedBoards.exit:  ; preds = %16, %14, %5, %3
  %.0 = phi i32 [ -301, %3 ], [ -101, %5 ], [ %15, %14 ], [ %..i, %16 ]
  ret i32 %.0
}